; Function Attrs: null_pointer_is_valid sspstrong uwtable
define internal i32 @dissect_t125(ptr noundef %0, ptr noundef %1, ptr noundef %2, ptr readnone captures(none) %3) #0 {
  %5 = alloca %struct._asn1_ctx_t, align 8
  %6 = alloca i8, align 1
  %7 = alloca i8, align 1
  %8 = alloca i32, align 4
  call void @llvm.lifetime.start.p0(i64 1, ptr nonnull %6) #5
  call void @llvm.lifetime.start.p0(i64 1, ptr nonnull %7) #5
  call void @llvm.lifetime.start.p0(i64 4, ptr nonnull %8) #5
  store ptr %2, ptr @top_tree, align 8
  %9 = getelementptr inbounds nuw i8, ptr %1, i64 8
  %10 = load ptr, ptr %9, align 8
  tail call void @col_set_str(ptr noundef %10, i32 noundef 35, ptr noundef nonnull @.str.54)
  %11 = load ptr, ptr %9, align 8
  tail call void @col_clear(ptr noundef %11, i32 noundef 25)
  %12 = load i32, ptr @proto_t125, align 4
  %13 = tail call i32 @tvb_captured_length(ptr noundef %0)
  %14 = tail call ptr @proto_tree_add_item(ptr noundef %2, i32 noundef %12, ptr noundef %0, i32 noundef 0, i32 noundef %13, i32 noundef 0)
  %15 = load i32, ptr @ett_t125, align 4
  %16 = tail call ptr @proto_item_add_subtree(ptr noundef %14, i32 noundef %15)
  %17 = call i32 @get_ber_identifier(ptr noundef %0, i32 noundef 0, ptr noundef nonnull %6, ptr noundef nonnull %7, ptr noundef nonnull %8)
  %18 = load i8, ptr %6, align 1
  %19 = icmp eq i8 %18, 1
  %20 = load i32, ptr %8, align 4
  %21 = add i32 %20, -101
  %22 = icmp ult i32 %21, 4
  %or.cond3 = select i1 %19, i1 %22, i1 false
  br i1 %or.cond3, label %23, label %27

23:                                               ; preds = %4
  call void @llvm.lifetime.start.p0(i64 208, ptr nonnull %5) #5
  call void @asn1_ctx_init(ptr noundef nonnull %5, i32 noundef 0, i1 noundef zeroext true, ptr noundef %1)
  %24 = load i32, ptr @hf_t125_ConnectMCSPDU_PDU, align 4
  %25 = load i32, ptr @ett_t125_ConnectMCSPDU, align 4
  %26 = call i32 @dissect_ber_choice(ptr noundef nonnull %5, ptr noundef %16, ptr noundef %0, i32 noundef 0, ptr noundef nonnull @ConnectMCSPDU_choice, i32 noundef %24, i32 noundef %25, ptr noundef null)
  call void @llvm.lifetime.end.p0(i64 208, ptr nonnull %5) #5
  br label %30

27:                                               ; preds = %4
  %28 = load ptr, ptr @top_tree, align 8
  call void @t124_set_top_tree(ptr noundef %28)
  %29 = call i32 @dissect_DomainMCSPDU_PDU(ptr noundef %0, ptr noundef %1, ptr noundef %16)
  br label %30

30:                                               ; preds = %27, %23
  %31 = call i32 @tvb_captured_length(ptr noundef %0)
  call void @llvm.lifetime.end.p0(i64 4, ptr nonnull %8) #5
  call void @llvm.lifetime.end.p0(i64 1, ptr nonnull %7) #5
  call void @llvm.lifetime.end.p0(i64 1, ptr nonnull %6) #5
  ret i32 %31
}